target datalayout = "e-m:e-p270:32:32-p271:32:32-p272:64:64-i64:64-i128:128-f80:128-n8:16:32:64-S128"
target triple = "x86_64-pc-linux-gnu"

%class.Pipeline_Use_Element = type { i32, i32, i32, i8, %class.Pipeline_Use_Cycle_Mask }
%class.Pipeline_Use_Cycle_Mask = type { i32 }
%class.Phase = type { i32, ptr }
%class.PhaseCFG = type { %class.Phase, ptr, ptr, %class.Block_List, i32, ptr, ptr, i8, ptr, %class.Block_Array, ptr, double, ptr, ptr }
%class.Block_List = type <{ %class.Block_Array, i32, [4 x i8] }>
%class.Block_Array = type { i32, ptr, ptr }
%class.Block = type { %class.CFGElement, %class.Node_List, %class.Block_Array, i32, i32, i32, ptr, ptr, i32, i32, i32, i32, i32, i32, i32, i32, i8, i32 }
%class.CFGElement = type { ptr, double }
%class.Node_List = type <{ %class.Node_Array, i32, [4 x i8] }>
%class.Node_Array = type { ptr, i32, ptr }
%class.Node = type <{ ptr, ptr, ptr, i32, i32, i32, i32, i32, i32, i32, [4 x i8] }>
%class.Scheduling = type { ptr, ptr, ptr, i32, [4 x i8], %class.Node_List, %class.Node_List, ptr, %class.Node_List, %class.Node_List, ptr, i32, i32, ptr, ptr, ptr, ptr, i32, i32, [11 x %class.Pipeline_Use_Element], %class.Pipeline_Use }
%class.Pipeline_Use = type { i32, i32, i32, ptr }

; Function Attrs: mustprogress nounwind uwtable
define linkonce_odr hidden noundef i32 @_ZNK4Node3lenEv(ptr noundef nonnull align 8 dereferenceable(52) %0) #1 comdat align 2 {
  %2 = alloca ptr, align 8
  store ptr %0, ptr %2, align 8
  %3 = load ptr, ptr %2, align 8
  %4 = getelementptr inbounds %class.Node, ptr %3, i32 0, i32 4
  %5 = load i32, ptr %4, align 4
  ret i32 %5
}

; Function Attrs: mustprogress nounwind uwtable
define internal noundef zeroext i1 @_ZL12edge_from_toP4NodeS0_(ptr noundef %0, ptr noundef %1) #1 {
  %3 = alloca i1, align 1
  %4 = alloca ptr, align 8
  %5 = alloca ptr, align 8
  %6 = alloca i32, align 4
  store ptr %0, ptr %4, align 8
  store ptr %1, ptr %5, align 8
  store i32 0, ptr %6, align 4
  br label %7

7:                                                ; preds = %20, %2
  %8 = load i32, ptr %6, align 4
  %9 = load ptr, ptr %4, align 8
  %10 = call noundef i32 @_ZNK4Node3lenEv(ptr noundef nonnull align 8 dereferenceable(52) %9)
  %11 = icmp ult i32 %8, %10
  br i1 %11, label %12, label %23

12:                                               ; preds = %7
  %13 = load ptr, ptr %4, align 8
  %14 = load i32, ptr %6, align 4
  %15 = call noundef ptr @_ZNK4Node2inEj(ptr noundef nonnull align 8 dereferenceable(52) %13, i32 noundef %14)
  %16 = load ptr, ptr %5, align 8
  %17 = icmp eq ptr %15, %16
  br i1 %17, label %18, label %19

18:                                               ; preds = %12
  store i1 true, ptr %3, align 1
  br label %24

19:                                               ; preds = %12
  br label %20

20:                                               ; preds = %19
  %21 = load i32, ptr %6, align 4
  %22 = add i32 %21, 1
  store i32 %22, ptr %6, align 4
  br label %7, !llvm.loop !78

23:                                               ; preds = %7
  store i1 false, ptr %3, align 1
  br label %24

24:                                               ; preds = %23, %18
  %25 = load i1, ptr %3, align 1
  ret i1 %25
}

; Function Attrs: mustprogress nounwind uwtable
define linkonce_odr hidden noundef ptr @_ZNK4Node2inEj(ptr noundef nonnull align 8 dereferenceable(52) %0, i32 noundef %1) #1 comdat align 2 {
  %3 = alloca ptr, align 8
  %4 = alloca i32, align 4
  store ptr %0, ptr %3, align 8
  store i32 %1, ptr %4, align 4
  %5 = load ptr, ptr %3, align 8
  %6 = getelementptr inbounds %class.Node, ptr %5, i32 0, i32 1
  %7 = load ptr, ptr %6, align 8
  %8 = load i32, ptr %4, align 4
  %9 = zext i32 %8 to i64
  %10 = getelementptr inbounds ptr, ptr %7, i64 %9
  %11 = load ptr, ptr %10, align 8
  ret ptr %11
}

; Function Attrs: mustprogress nounwind uwtable
define linkonce_odr hidden noundef zeroext i1 @_ZNK4Node7is_ProjEv(ptr noundef nonnull align 8 dereferenceable(52) %0) #1 comdat align 2 {
  %2 = alloca ptr, align 8
  store ptr %0, ptr %2, align 8
  %3 = load ptr, ptr %2, align 8
  %4 = getelementptr inbounds %class.Node, ptr %3, i32 0, i32 8
  %5 = load i32, ptr %4, align 4
  %6 = and i32 %5, 15
  %7 = icmp eq i32 %6, 8
  ret i1 %7
}

; Function Attrs: mustprogress nounwind uwtable
define linkonce_odr hidden void @_ZN9Node_List6insertEjP4Node(ptr noundef nonnull align 8 dereferenceable(28) %0, i32 noundef %1, ptr noundef %2) #1 comdat align 2 {
  %4 = alloca ptr, align 8
  %5 = alloca i32, align 4
  %6 = alloca ptr, align 8
  store ptr %0, ptr %4, align 8
  store i32 %1, ptr %5, align 4
  store ptr %2, ptr %6, align 8
  %7 = load ptr, ptr %4, align 8
  %8 = load i32, ptr %5, align 4
  %9 = load ptr, ptr %6, align 8
  call void @_ZN10Node_Array6insertEjP4Node(ptr noundef nonnull align 8 dereferenceable(24) %7, i32 noundef %8, ptr noundef %9)
  %10 = getelementptr inbounds %class.Node_List, ptr %7, i32 0, i32 1
  %11 = load i32, ptr %10, align 8
  %12 = add i32 %11, 1
  store i32 %12, ptr %10, align 8
  ret void
}

; Function Attrs: mustprogress nounwind uwtable
define linkonce_odr hidden noundef ptr @_ZNK11Block_ArrayixEj(ptr noundef nonnull align 8 dereferenceable(24) %0, i32 noundef %1) #1 comdat align 2 {
  %3 = alloca ptr, align 8
  %4 = alloca i32, align 4
  store ptr %0, ptr %3, align 8
  store i32 %1, ptr %4, align 4
  %5 = load ptr, ptr %3, align 8
  %6 = getelementptr inbounds %class.Block_Array, ptr %5, i32 0, i32 2
  %7 = load ptr, ptr %6, align 8
  %8 = load i32, ptr %4, align 4
  %9 = zext i32 %8 to i64
  %10 = getelementptr inbounds ptr, ptr %7, i64 %9
  %11 = load ptr, ptr %10, align 8
  ret ptr %11
}

; Function Attrs: mustprogress nounwind uwtable
define internal void @_ZL21add_prec_edge_from_toP4NodeS0_(ptr noundef %0, ptr noundef %1) #1 {
  %3 = alloca ptr, align 8
  %4 = alloca ptr, align 8
  store ptr %0, ptr %3, align 8
  store ptr %1, ptr %4, align 8
  %5 = load ptr, ptr %3, align 8
  %6 = call noundef zeroext i1 @_ZNK4Node7is_ProjEv(ptr noundef nonnull align 8 dereferenceable(52) %5)
  br i1 %6, label %7, label %10

7:                                                ; preds = %2
  %8 = load ptr, ptr %3, align 8
  %9 = call noundef ptr @_ZNK4Node2inEj(ptr noundef nonnull align 8 dereferenceable(52) %8, i32 noundef 0)
  store ptr %9, ptr %3, align 8
  br label %10

10:                                               ; preds = %7, %2
  %11 = load ptr, ptr %3, align 8
  %12 = load ptr, ptr %4, align 8
  %13 = icmp ne ptr %11, %12
  br i1 %13, label %14, label %21

14:                                               ; preds = %10
  %15 = load ptr, ptr %3, align 8
  %16 = load ptr, ptr %4, align 8
  %17 = call noundef zeroext i1 @_ZL12edge_from_toP4NodeS0_(ptr noundef %15, ptr noundef %16)
  br i1 %17, label %21, label %18

18:                                               ; preds = %14
  %19 = load ptr, ptr %3, align 8
  %20 = load ptr, ptr %4, align 8
  call void @_ZN4Node8add_precEPS_(ptr noundef nonnull align 8 dereferenceable(52) %19, ptr noundef %20)
  br label %21

21:                                               ; preds = %18, %14, %10
  ret void
}

; Function Attrs: mustprogress nounwind uwtable
define linkonce_odr hidden void @_ZN5Block11insert_nodeEP4Nodej(ptr noundef nonnull align 8 dereferenceable(144) %0, ptr noundef %1, i32 noundef %2) #1 comdat align 2 {
  %4 = alloca ptr, align 8
  %5 = alloca ptr, align 8
  %6 = alloca i32, align 4
  store ptr %0, ptr %4, align 8
  store ptr %1, ptr %5, align 8
  store i32 %2, ptr %6, align 4
  %7 = load ptr, ptr %4, align 8
  %8 = getelementptr inbounds %class.Block, ptr %7, i32 0, i32 1
  %9 = load i32, ptr %6, align 4
  %10 = load ptr, ptr %5, align 8
  call void @_ZN9Node_List6insertEjP4Node(ptr noundef nonnull align 8 dereferenceable(28) %8, i32 noundef %9, ptr noundef %10)
  ret void
}

; Function Attrs: mustprogress nounwind uwtable
define linkonce_odr hidden noundef i32 @_ZNK4Node3reqEv(ptr noundef nonnull align 8 dereferenceable(52) %0) #1 comdat align 2 {
  %2 = alloca ptr, align 8
  store ptr %0, ptr %2, align 8
  %3 = load ptr, ptr %2, align 8
  %4 = getelementptr inbounds %class.Node, ptr %3, i32 0, i32 3
  %5 = load i32, ptr %4, align 8
  ret i32 %5
}

; Function Attrs: mustprogress nounwind uwtable
define linkonce_odr hidden noundef ptr @_ZNK8PhaseCFG18get_block_for_nodeEPK4Node(ptr noundef nonnull align 8 dereferenceable(160) %0, ptr noundef %1) #1 comdat align 2 {
  %3 = alloca ptr, align 8
  %4 = alloca ptr, align 8
  store ptr %0, ptr %3, align 8
  store ptr %1, ptr %4, align 8
  %5 = load ptr, ptr %3, align 8
  %6 = getelementptr inbounds %class.PhaseCFG, ptr %5, i32 0, i32 9
  %7 = load ptr, ptr %4, align 8
  %8 = getelementptr inbounds %class.Node, ptr %7, i32 0, i32 7
  %9 = load i32, ptr %8, align 8
  %10 = call noundef ptr @_ZNK11Block_ArrayixEj(ptr noundef nonnull align 8 dereferenceable(24) %6, i32 noundef %9)
  ret ptr %10
}

; Function Attrs: mustprogress nounwind uwtable
define linkonce_odr hidden noundef ptr @_ZNK10Node_ArrayixEj(ptr noundef nonnull align 8 dereferenceable(24) %0, i32 noundef %1) #1 comdat align 2 {
  %3 = alloca ptr, align 8
  %4 = alloca i32, align 4
  store ptr %0, ptr %3, align 8
  store i32 %1, ptr %4, align 4
  %5 = load ptr, ptr %3, align 8
  %6 = load i32, ptr %4, align 4
  %7 = getelementptr inbounds %class.Node_Array, ptr %5, i32 0, i32 1
  %8 = load i32, ptr %7, align 8
  %9 = icmp ult i32 %6, %8
  br i1 %9, label %10, label %17

10:                                               ; preds = %2
  %11 = getelementptr inbounds %class.Node_Array, ptr %5, i32 0, i32 2
  %12 = load ptr, ptr %11, align 8
  %13 = load i32, ptr %4, align 4
  %14 = zext i32 %13 to i64
  %15 = getelementptr inbounds ptr, ptr %12, i64 %14
  %16 = load ptr, ptr %15, align 8
  br label %18

17:                                               ; preds = %2
  br label %18

18:                                               ; preds = %17, %10
  %19 = phi ptr [ %16, %10 ], [ null, %17 ]
  ret ptr %19
}

; Function Attrs: mustprogress nounwind uwtable
define linkonce_odr hidden noundef zeroext i1 @_ZN7OptoReg8is_validEi(i32 noundef %0) #1 comdat align 2 {
  %2 = alloca i32, align 4
  store i32 %0, ptr %2, align 4
  %3 = load i32, ptr %2, align 4
  %4 = icmp ne i32 %3, -1
  ret i1 %4
}

; Function Attrs: mustprogress nounwind uwtable
define hidden void @_ZN10Scheduling11anti_do_useEP5BlockP4Nodei(ptr noundef nonnull align 8 dereferenceable(472) %0, ptr noundef %1, ptr noundef %2, i32 noundef %3) #1 align 2 {
  %5 = alloca ptr, align 8
  %6 = alloca ptr, align 8
  %7 = alloca ptr, align 8
  %8 = alloca i32, align 4
  %9 = alloca ptr, align 8
  store ptr %0, ptr %5, align 8
  store ptr %1, ptr %6, align 8
  store ptr %2, ptr %7, align 8
  store i32 %3, ptr %8, align 4
  %10 = load ptr, ptr %5, align 8
  %11 = load i32, ptr %8, align 4
  %12 = call noundef zeroext i1 @_ZN7OptoReg8is_validEi(i32 noundef %11)
  br i1 %12, label %14, label %13

13:                                               ; preds = %4
  br label %59

14:                                               ; preds = %4
  %15 = getelementptr inbounds %class.Scheduling, ptr %10, i32 0, i32 8
  %16 = load i32, ptr %8, align 4
  %17 = call noundef ptr @_ZNK10Node_ArrayixEj(ptr noundef nonnull align 8 dereferenceable(24) %15, i32 noundef %16)
  store ptr %17, ptr %9, align 8
  %18 = load ptr, ptr %9, align 8
  %19 = icmp ne ptr %18, null
  br i1 %19, label %20, label %59

20:                                               ; preds = %14
  %21 = getelementptr inbounds %class.Scheduling, ptr %10, i32 0, i32 1
  %22 = load ptr, ptr %21, align 8
  %23 = load ptr, ptr %9, align 8
  %24 = call noundef ptr @_ZNK8PhaseCFG18get_block_for_nodeEPK4Node(ptr noundef nonnull align 8 dereferenceable(160) %22, ptr noundef %23)
  %25 = load ptr, ptr %6, align 8
  %26 = icmp eq ptr %24, %25
  br i1 %26, label %27, label %59

27:                                               ; preds = %20
  %28 = getelementptr inbounds %class.Scheduling, ptr %10, i32 0, i32 1
  %29 = load ptr, ptr %28, align 8
  %30 = load ptr, ptr %7, align 8
  %31 = call noundef ptr @_ZNK8PhaseCFG18get_block_for_nodeEPK4Node(ptr noundef nonnull align 8 dereferenceable(160) %29, ptr noundef %30)
  %32 = load ptr, ptr %6, align 8
  %33 = icmp eq ptr %31, %32
  br i1 %33, label %34, label %59

34:                                               ; preds = %27
  %35 = load ptr, ptr %9, align 8
  %36 = load ptr, ptr %35, align 8
  %37 = getelementptr inbounds ptr, ptr %36, i64 0
  %38 = load ptr, ptr %37, align 8
  %39 = call noundef i32 %38(ptr noundef nonnull align 8 dereferenceable(52) %35)
  %40 = icmp eq i32 %39, 0
  br i1 %40, label %41, label %56

41:                                               ; preds = %34
  %42 = load ptr, ptr %9, align 8
  %43 = call noundef i32 @_ZNK4Node3reqEv(ptr noundef nonnull align 8 dereferenceable(52) %42)
  %44 = icmp eq i32 %43, 1
  br i1 %44, label %45, label %56

45:                                               ; preds = %41
  %46 = load ptr, ptr %9, align 8
  call void @_ZN4Node7del_reqEj(ptr noundef nonnull align 8 dereferenceable(52) %46, i32 noundef 0)
  %47 = load ptr, ptr %6, align 8
  %48 = load ptr, ptr %9, align 8
  %49 = load ptr, ptr %6, align 8
  %50 = load ptr, ptr %7, align 8
  %51 = call noundef i32 @_ZNK5Block9find_nodeEPK4Node(ptr noundef nonnull align 8 dereferenceable(144) %49, ptr noundef %50)
  %52 = add i32 %51, 1
  call void @_ZN5Block11insert_nodeEP4Nodej(ptr noundef nonnull align 8 dereferenceable(144) %47, ptr noundef %48, i32 noundef %52)
  %53 = getelementptr inbounds %class.Scheduling, ptr %10, i32 0, i32 12
  %54 = load i32, ptr %53, align 4
  %55 = add i32 %54, 1
  store i32 %55, ptr %53, align 4
  br label %56

56:                                               ; preds = %45, %41, %34
  %57 = load ptr, ptr %9, align 8
  %58 = load ptr, ptr %7, align 8
  call void @_ZL21add_prec_edge_from_toP4NodeS0_(ptr noundef %57, ptr noundef %58)
  br label %59

59:                                               ; preds = %56, %27, %20, %14, %13
  ret void
}