; Function Attrs: mustprogress nounwind uwtable
define hidden void @_ZN10Scheduling11anti_do_useEP5BlockP4Nodei(ptr nocapture noundef nonnull align 8 dereferenceable(472) %0, ptr noundef %1, ptr noundef %2, i32 noundef %3) local_unnamed_addr #0 align 2 {
  %.not18 = icmp ne i32 %3, -1
  %5 = getelementptr inbounds i8, ptr %0, i64 112
  %6 = load i32, ptr %5, align 8
  %7 = icmp ugt i32 %6, %3
  %or.cond = select i1 %.not18, i1 %7, i1 false
  br i1 %or.cond, label %_ZNK10Node_ArrayixEj.exit, label %_ZL21add_prec_edge_from_toP4NodeS0_.exit

_ZNK10Node_ArrayixEj.exit:                        ; preds = %4
  %8 = getelementptr inbounds i8, ptr %0, i64 120
  %9 = load ptr, ptr %8, align 8
  %10 = zext i32 %3 to i64
  %11 = getelementptr inbounds ptr, ptr %9, i64 %10
  %12 = load ptr, ptr %11, align 8
  %.not = icmp eq ptr %12, null
  br i1 %.not, label %_ZL21add_prec_edge_from_toP4NodeS0_.exit, label %13

13:                                               ; preds = %_ZNK10Node_ArrayixEj.exit
  %14 = getelementptr inbounds i8, ptr %0, i64 8
  %15 = load ptr, ptr %14, align 8
  %16 = getelementptr inbounds i8, ptr %12, i64 40
  %17 = load i32, ptr %16, align 8
  %18 = getelementptr inbounds i8, ptr %15, i64 120
  %19 = load ptr, ptr %18, align 8
  %20 = zext i32 %17 to i64
  %21 = getelementptr inbounds ptr, ptr %19, i64 %20
  %22 = load ptr, ptr %21, align 8
  %23 = icmp eq ptr %22, %1
  br i1 %23, label %24, label %_ZL21add_prec_edge_from_toP4NodeS0_.exit

24:                                               ; preds = %13
  %25 = getelementptr inbounds i8, ptr %2, i64 40
  %26 = load i32, ptr %25, align 8
  %27 = zext i32 %26 to i64
  %28 = getelementptr inbounds ptr, ptr %19, i64 %27
  %29 = load ptr, ptr %28, align 8
  %30 = icmp eq ptr %29, %1
  br i1 %30, label %31, label %_ZL21add_prec_edge_from_toP4NodeS0_.exit

31:                                               ; preds = %24
  %32 = load ptr, ptr %12, align 8
  %33 = load ptr, ptr %32, align 8
  %34 = tail call noundef i32 %33(ptr noundef nonnull align 8 dereferenceable(52) %12) #14
  %35 = icmp eq i32 %34, 0
  br i1 %35, label %36, label %50

36:                                               ; preds = %31
  %37 = getelementptr inbounds i8, ptr %12, i64 24
  %38 = load i32, ptr %37, align 8
  %39 = icmp eq i32 %38, 1
  br i1 %39, label %40, label %50

40:                                               ; preds = %36
  tail call void @_ZN4Node7del_reqEj(ptr noundef nonnull align 8 dereferenceable(52) %12, i32 noundef 0) #14
  %41 = tail call noundef i32 @_ZNK5Block9find_nodeEPK4Node(ptr noundef nonnull align 8 dereferenceable(144) %1, ptr noundef nonnull %2) #14
  %42 = add i32 %41, 1
  %43 = getelementptr inbounds i8, ptr %1, i64 16
  tail call void @_ZN10Node_Array6insertEjP4Node(ptr noundef nonnull align 8 dereferenceable(24) %43, i32 noundef %42, ptr noundef nonnull %12) #14
  %44 = getelementptr inbounds i8, ptr %1, i64 40
  %45 = load i32, ptr %44, align 8
  %46 = add i32 %45, 1
  store i32 %46, ptr %44, align 8
  %47 = getelementptr inbounds i8, ptr %0, i64 180
  %48 = load i32, ptr %47, align 4
  %49 = add i32 %48, 1
  store i32 %49, ptr %47, align 4
  br label %50

50:                                               ; preds = %40, %36, %31
  %51 = getelementptr inbounds i8, ptr %12, i64 44
  %52 = load i32, ptr %51, align 4
  %53 = and i32 %52, 15
  %54 = icmp eq i32 %53, 8
  br i1 %54, label %55, label %59

55:                                               ; preds = %50
  %56 = getelementptr inbounds i8, ptr %12, i64 8
  %57 = load ptr, ptr %56, align 8
  %58 = load ptr, ptr %57, align 8
  br label %59

59:                                               ; preds = %55, %50
  %.0.i = phi ptr [ %58, %55 ], [ %12, %50 ]
  %.not.i = icmp eq ptr %.0.i, %2
  br i1 %.not.i, label %_ZL21add_prec_edge_from_toP4NodeS0_.exit, label %60

60:                                               ; preds = %59
  %61 = getelementptr inbounds i8, ptr %.0.i, i64 28
  %62 = load i32, ptr %61, align 4
  %.not.i.i = icmp eq i32 %62, 0
  br i1 %.not.i.i, label %_ZL12edge_from_toP4NodeS0_.exit.thread.i, label %.lr.ph.i.i

.lr.ph.i.i:                                       ; preds = %60
  %63 = getelementptr inbounds i8, ptr %.0.i, i64 8
  %64 = load ptr, ptr %63, align 8
  %65 = zext i32 %62 to i64
  %66 = load ptr, ptr %64, align 8
  %67 = icmp eq ptr %66, %2
  br i1 %67, label %_ZL21add_prec_edge_from_toP4NodeS0_.exit, label %.lr.ph.i

.lr.ph.i:                                         ; preds = %.lr.ph.i.i, %68
  %indvars.iv.i10.i = phi i64 [ %indvars.iv.next.i.i, %68 ], [ 0, %.lr.ph.i.i ]
  %indvars.iv.next.i.i = add nuw nsw i64 %indvars.iv.i10.i, 1
  %exitcond.not.i.i = icmp eq i64 %indvars.iv.next.i.i, %65
  br i1 %exitcond.not.i.i, label %_ZL12edge_from_toP4NodeS0_.exit.thread.i, label %68, !llvm.loop !71

68:                                               ; preds = %.lr.ph.i
  %69 = getelementptr inbounds ptr, ptr %64, i64 %indvars.iv.next.i.i
  %70 = load ptr, ptr %69, align 8
  %71 = icmp eq ptr %70, %2
  br i1 %71, label %_ZL12edge_from_toP4NodeS0_.exit.i, label %.lr.ph.i, !llvm.loop !71

_ZL12edge_from_toP4NodeS0_.exit.i:                ; preds = %68
  %72 = icmp ult i64 %indvars.iv.next.i.i, %65
  br i1 %72, label %_ZL21add_prec_edge_from_toP4NodeS0_.exit, label %_ZL12edge_from_toP4NodeS0_.exit.thread.i

_ZL12edge_from_toP4NodeS0_.exit.thread.i:         ; preds = %.lr.ph.i, %_ZL12edge_from_toP4NodeS0_.exit.i, %60
  tail call void @_ZN4Node8add_precEPS_(ptr noundef nonnull align 8 dereferenceable(52) %.0.i, ptr noundef %2) #14
  br label %_ZL21add_prec_edge_from_toP4NodeS0_.exit

_ZL21add_prec_edge_from_toP4NodeS0_.exit:         ; preds = %_ZL12edge_from_toP4NodeS0_.exit.thread.i, %_ZL12edge_from_toP4NodeS0_.exit.i, %.lr.ph.i.i, %59, %4, %24, %13, %_ZNK10Node_ArrayixEj.exit
  ret void
}